target datalayout = "e-m:e-p270:32:32-p271:32:32-p272:64:64-i64:64-i128:128-f80:128-n8:16:32:64-S128"
target triple = "x86_64-pc-linux-gnu"

%class.svector.42 = type { %class.vector.43 }
%class.vector.43 = type { ptr }
%"class.datalog::table_signature" = type <{ %"class.datalog::tr_infrastructure<datalog::table_traits>::signature_base", i32, [4 x i8] }>
%"class.datalog::tr_infrastructure<datalog::table_traits>::signature_base" = type { %class.svector.134 }
%class.svector.134 = type { %class.vector.135 }
%class.vector.135 = type { ptr }
%"class.datalog::tr_infrastructure<datalog::table_traits>::base_ancestor" = type <{ ptr, ptr, %"class.datalog::table_signature", i32, [4 x i8] }>
%"class.datalog::tr_infrastructure<datalog::table_traits>::base_fn" = type { ptr }
%"class.datalog::tr_infrastructure<datalog::table_traits>::transformer_fn" = type { %"class.datalog::tr_infrastructure<datalog::table_traits>::base_fn" }
%"class.datalog::tr_infrastructure<datalog::table_traits>::default_permutation_rename_fn" = type { %"class.datalog::tr_infrastructure<datalog::table_traits>::transformer_fn", %class.svector.42, i8, %class.ptr_vector.192 }
%class.ptr_vector.192 = type { %class.vector.193 }
%class.vector.193 = type { ptr }

; Function Attrs: mustprogress uwtable
define linkonce_odr hidden noundef nonnull align 8 dereferenceable(8) ptr @_ZN6vectorIjLb0EjE9push_backERKj(ptr noundef nonnull align 8 dereferenceable(8) %0, ptr noundef nonnull align 4 dereferenceable(4) %1) #5 comdat align 2 {
  %3 = alloca ptr, align 8
  %4 = alloca ptr, align 8
  store ptr %0, ptr %3, align 8, !tbaa !482
  store ptr %1, ptr %4, align 8, !tbaa !286
  %5 = load ptr, ptr %3, align 8
  %6 = getelementptr inbounds nuw %class.vector.43, ptr %5, i32 0, i32 0
  %7 = load ptr, ptr %6, align 8, !tbaa !484
  %8 = icmp eq ptr %7, null
  br i1 %8, label %19, label %9

9:                                                ; preds = %2
  %10 = getelementptr inbounds nuw %class.vector.43, ptr %5, i32 0, i32 0
  %11 = load ptr, ptr %10, align 8, !tbaa !484
  %12 = getelementptr inbounds i32, ptr %11, i64 -1
  %13 = load i32, ptr %12, align 4, !tbaa !279
  %14 = getelementptr inbounds nuw %class.vector.43, ptr %5, i32 0, i32 0
  %15 = load ptr, ptr %14, align 8, !tbaa !484
  %16 = getelementptr inbounds i32, ptr %15, i64 -2
  %17 = load i32, ptr %16, align 4, !tbaa !279
  %18 = icmp eq i32 %13, %17
  br i1 %18, label %19, label %20

19:                                               ; preds = %9, %2
  call void @_ZN6vectorIjLb0EjE13expand_vectorEv(ptr noundef nonnull align 8 dereferenceable(8) %5)
  br label %20

20:                                               ; preds = %19, %9
  %21 = getelementptr inbounds nuw %class.vector.43, ptr %5, i32 0, i32 0
  %22 = load ptr, ptr %21, align 8, !tbaa !484
  %23 = getelementptr inbounds nuw %class.vector.43, ptr %5, i32 0, i32 0
  %24 = load ptr, ptr %23, align 8, !tbaa !484
  %25 = getelementptr inbounds i32, ptr %24, i64 -1
  %26 = load i32, ptr %25, align 4, !tbaa !279
  %27 = zext i32 %26 to i64
  %28 = getelementptr inbounds nuw i32, ptr %22, i64 %27
  %29 = load ptr, ptr %4, align 8, !tbaa !286
  %30 = load i32, ptr %29, align 4, !tbaa !279
  store i32 %30, ptr %28, align 4, !tbaa !279
  %31 = getelementptr inbounds nuw %class.vector.43, ptr %5, i32 0, i32 0
  %32 = load ptr, ptr %31, align 8, !tbaa !484
  %33 = getelementptr inbounds i32, ptr %32, i64 -1
  %34 = load i32, ptr %33, align 4, !tbaa !279
  %35 = add i32 %34, 1
  store i32 %35, ptr %33, align 4, !tbaa !279
  ret ptr %5
}

; Function Attrs: mustprogress nounwind uwtable
define linkonce_odr hidden void @_ZN6vectorIPN7datalog17tr_infrastructureINS0_12table_traitsEE14transformer_fnELb0EjEC2Ev(ptr noundef nonnull align 8 dereferenceable(8) %0) unnamed_addr #4 comdat align 2 {
  %2 = alloca ptr, align 8
  store ptr %0, ptr %2, align 8, !tbaa !1130
  %3 = load ptr, ptr %2, align 8
  %4 = getelementptr inbounds nuw %class.vector.193, ptr %3, i32 0, i32 0
  store ptr null, ptr %4, align 8, !tbaa !1132
  ret void
}

; Function Attrs: mustprogress uwtable
define linkonce_odr hidden void @_ZN6vectorIjLb0EjEC2EjPKj(ptr noundef nonnull align 8 dereferenceable(8) %0, i32 noundef %1, ptr noundef %2) unnamed_addr #5 comdat align 2 {
  %4 = alloca ptr, align 8
  %5 = alloca i32, align 4
  %6 = alloca ptr, align 8
  %7 = alloca i32, align 4
  store ptr %0, ptr %4, align 8, !tbaa !482
  store i32 %1, ptr %5, align 4, !tbaa !279
  store ptr %2, ptr %6, align 8, !tbaa !286
  %8 = load ptr, ptr %4, align 8
  %9 = getelementptr inbounds nuw %class.vector.43, ptr %8, i32 0, i32 0
  store ptr null, ptr %9, align 8, !tbaa !484
  call void @llvm.lifetime.start.p0(i64 4, ptr %7) #3
  store i32 0, ptr %7, align 4, !tbaa !279
  br label %10

10:                                               ; preds = %21, %3
  %11 = load i32, ptr %7, align 4, !tbaa !279
  %12 = load i32, ptr %5, align 4, !tbaa !279
  %13 = icmp ult i32 %11, %12
  br i1 %13, label %15, label %14

14:                                               ; preds = %10
  call void @llvm.lifetime.end.p0(i64 4, ptr %7) #3
  br label %24

15:                                               ; preds = %10
  %16 = load ptr, ptr %6, align 8, !tbaa !286
  %17 = load i32, ptr %7, align 4, !tbaa !279
  %18 = zext i32 %17 to i64
  %19 = getelementptr inbounds nuw i32, ptr %16, i64 %18
  %20 = call noundef nonnull align 8 dereferenceable(8) ptr @_ZN6vectorIjLb0EjE9push_backERKj(ptr noundef nonnull align 8 dereferenceable(8) %8, ptr noundef nonnull align 4 dereferenceable(4) %19)
  br label %21

21:                                               ; preds = %15
  %22 = load i32, ptr %7, align 4, !tbaa !279
  %23 = add i32 %22, 1
  store i32 %23, ptr %7, align 4, !tbaa !279
  br label %10, !llvm.loop !673

24:                                               ; preds = %14
  ret void
}

; Function Attrs: mustprogress nounwind uwtable
define linkonce_odr hidden void @_ZN7datalog17tr_infrastructureINS_12table_traitsEE7base_fnC2Ev(ptr noundef nonnull align 8 dereferenceable(8) %0) unnamed_addr #4 comdat align 2 {
  %2 = alloca ptr, align 8
  store ptr %0, ptr %2, align 8, !tbaa !704
  %3 = load ptr, ptr %2, align 8
  store ptr getelementptr inbounds inrange(-16, 16) ({ [4 x ptr] }, ptr @_ZTVN7datalog17tr_infrastructureINS_12table_traitsEE7base_fnE, i32 0, i32 0, i32 2), ptr %3, align 8, !tbaa !8
  ret void
}

; Function Attrs: mustprogress nounwind uwtable
define linkonce_odr hidden void @_ZN7datalog17tr_infrastructureINS_12table_traitsEE7base_fnD2Ev(ptr noundef nonnull align 8 dereferenceable(8) %0) unnamed_addr #4 comdat align 2 {
  %2 = alloca ptr, align 8
  store ptr %0, ptr %2, align 8, !tbaa !704
  ret void
}

; Function Attrs: mustprogress nounwind uwtable
define linkonce_odr hidden void @_ZN10ptr_vectorIN7datalog17tr_infrastructureINS0_12table_traitsEE14transformer_fnEEC2Ev(ptr noundef nonnull align 8 dereferenceable(8) %0) unnamed_addr #4 comdat align 2 {
  %2 = alloca ptr, align 8
  store ptr %0, ptr %2, align 8, !tbaa !1125
  %3 = load ptr, ptr %2, align 8
  call void @_ZN6vectorIPN7datalog17tr_infrastructureINS0_12table_traitsEE14transformer_fnELb0EjEC2Ev(ptr noundef nonnull align 8 dereferenceable(8) %3) #3
  ret void
}

; Function Attrs: mustprogress uwtable
define linkonce_odr hidden void @_ZN7svectorIjjEC2EjPKj(ptr noundef nonnull align 8 dereferenceable(8) %0, i32 noundef %1, ptr noundef %2) unnamed_addr #5 comdat align 2 {
  %4 = alloca ptr, align 8
  %5 = alloca i32, align 4
  %6 = alloca ptr, align 8
  store ptr %0, ptr %4, align 8, !tbaa !480
  store i32 %1, ptr %5, align 4, !tbaa !279
  store ptr %2, ptr %6, align 8, !tbaa !286
  %7 = load ptr, ptr %4, align 8
  %8 = load i32, ptr %5, align 4, !tbaa !279
  %9 = load ptr, ptr %6, align 8, !tbaa !286
  call void @_ZN6vectorIjLb0EjEC2EjPKj(ptr noundef nonnull align 8 dereferenceable(8) %7, i32 noundef %8, ptr noundef %9)
  ret void
}

; Function Attrs: mustprogress nounwind uwtable
define linkonce_odr hidden noundef i32 @_ZNK6vectorImLb0EjE4sizeEv(ptr noundef nonnull align 8 dereferenceable(8) %0) #4 comdat align 2 {
  %2 = alloca i32, align 4
  %3 = alloca ptr, align 8
  store ptr %0, ptr %3, align 8, !tbaa !409
  %4 = load ptr, ptr %3, align 8
  %5 = getelementptr inbounds nuw %class.vector.135, ptr %4, i32 0, i32 0
  %6 = load ptr, ptr %5, align 8, !tbaa !412
  %7 = icmp eq ptr %6, null
  br i1 %7, label %8, label %9

8:                                                ; preds = %1
  store i32 0, ptr %2, align 4
  br label %14

9:                                                ; preds = %1
  %10 = getelementptr inbounds nuw %class.vector.135, ptr %4, i32 0, i32 0
  %11 = load ptr, ptr %10, align 8, !tbaa !412
  %12 = getelementptr inbounds i32, ptr %11, i64 -1
  %13 = load i32, ptr %12, align 4, !tbaa !279
  store i32 %13, ptr %2, align 4
  br label %14

14:                                               ; preds = %9, %8
  %15 = load i32, ptr %2, align 4
  ret i32 %15
}

; Function Attrs: mustprogress nounwind uwtable
define linkonce_odr hidden noundef nonnull align 8 dereferenceable(12) ptr @_ZNK7datalog17tr_infrastructureINS_12table_traitsEE13base_ancestor13get_signatureEv(ptr noundef nonnull align 8 dereferenceable(36) %0) #4 comdat align 2 {
  %2 = alloca ptr, align 8
  store ptr %0, ptr %2, align 8, !tbaa !377
  %3 = load ptr, ptr %2, align 8
  %4 = getelementptr inbounds nuw %"class.datalog::tr_infrastructure<datalog::table_traits>::base_ancestor", ptr %3, i32 0, i32 2
  ret ptr %4
}

; Function Attrs: inlinehint mustprogress nounwind uwtable
define linkonce_odr hidden void @_ZN7datalog17tr_infrastructureINS_12table_traitsEE14transformer_fnC2Ev(ptr noundef nonnull align 8 dereferenceable(8) %0) unnamed_addr #7 comdat align 2 {
  %2 = alloca ptr, align 8
  store ptr %0, ptr %2, align 8, !tbaa !510
  %3 = load ptr, ptr %2, align 8
  call void @_ZN7datalog17tr_infrastructureINS_12table_traitsEE7base_fnC2Ev(ptr noundef nonnull align 8 dereferenceable(8) %3) #3
  store ptr getelementptr inbounds inrange(-16, 24) ({ [5 x ptr] }, ptr @_ZTVN7datalog17tr_infrastructureINS_12table_traitsEE14transformer_fnE, i32 0, i32 0, i32 2), ptr %3, align 8, !tbaa !8
  ret void
}

; Function Attrs: mustprogress uwtable
define linkonce_odr hidden void @_ZN7datalog17tr_infrastructureINS_12table_traitsEE29default_permutation_rename_fnC2ERKNS_10table_baseEPKj(ptr noundef nonnull align 8 dereferenceable(32) %0, ptr noundef nonnull align 8 dereferenceable(36) %1, ptr noundef %2) unnamed_addr #5 comdat align 2 personality ptr @__gxx_personality_v0 {
  %4 = alloca ptr, align 8
  %5 = alloca ptr, align 8
  %6 = alloca ptr, align 8
  %7 = alloca ptr, align 8
  %8 = alloca i32, align 4
  store ptr %0, ptr %4, align 8, !tbaa !520
  store ptr %1, ptr %5, align 8, !tbaa !375
  store ptr %2, ptr %6, align 8, !tbaa !286
  %9 = load ptr, ptr %4, align 8
  call void @_ZN7datalog17tr_infrastructureINS_12table_traitsEE14transformer_fnC2Ev(ptr noundef nonnull align 8 dereferenceable(8) %9) #3
  store ptr getelementptr inbounds inrange(-16, 24) ({ [5 x ptr] }, ptr @_ZTVN7datalog17tr_infrastructureINS_12table_traitsEE29default_permutation_rename_fnE, i32 0, i32 0, i32 2), ptr %9, align 8, !tbaa !8
  %10 = getelementptr inbounds nuw %"class.datalog::tr_infrastructure<datalog::table_traits>::default_permutation_rename_fn", ptr %9, i32 0, i32 1
  %11 = load ptr, ptr %5, align 8, !tbaa !375
  %12 = call noundef nonnull align 8 dereferenceable(12) ptr @_ZNK7datalog17tr_infrastructureINS_12table_traitsEE13base_ancestor13get_signatureEv(ptr noundef nonnull align 8 dereferenceable(36) %11)
  %13 = call noundef i32 @_ZNK6vectorImLb0EjE4sizeEv(ptr noundef nonnull align 8 dereferenceable(8) %12)
  %14 = load ptr, ptr %6, align 8, !tbaa !286
  invoke void @_ZN7svectorIjjEC2EjPKj(ptr noundef nonnull align 8 dereferenceable(8) %10, i32 noundef %13, ptr noundef %14)
          to label %15 unwind label %18

15:                                               ; preds = %3
  %16 = getelementptr inbounds nuw %"class.datalog::tr_infrastructure<datalog::table_traits>::default_permutation_rename_fn", ptr %9, i32 0, i32 2
  store i8 0, ptr %16, align 8, !tbaa !522
  %17 = getelementptr inbounds nuw %"class.datalog::tr_infrastructure<datalog::table_traits>::default_permutation_rename_fn", ptr %9, i32 0, i32 3
  call void @_ZN10ptr_vectorIN7datalog17tr_infrastructureINS0_12table_traitsEE14transformer_fnEEC2Ev(ptr noundef nonnull align 8 dereferenceable(8) %17) #3
  ret void

18:                                               ; preds = %3
  %19 = landingpad { ptr, i32 }
          cleanup
  %20 = extractvalue { ptr, i32 } %19, 0
  store ptr %20, ptr %7, align 8
  %21 = extractvalue { ptr, i32 } %19, 1
  store i32 %21, ptr %8, align 4
  call void @_ZN7datalog17tr_infrastructureINS_12table_traitsEE7base_fnD2Ev(ptr noundef nonnull align 8 dereferenceable(8) %9) #3
  br label %22

22:                                               ; preds = %18
  %23 = load ptr, ptr %7, align 8
  %24 = load i32, ptr %8, align 4
  %25 = insertvalue { ptr, i32 } poison, ptr %23, 0
  %26 = insertvalue { ptr, i32 } %25, i32 %24, 1
  resume { ptr, i32 } %26
}

; Function Attrs: mustprogress nounwind uwtable
define linkonce_odr hidden noundef nonnull align 8 dereferenceable(32) ptr @_ZNK7datalog17tr_infrastructureINS_12table_traitsEE13base_ancestor10get_pluginEv(ptr noundef nonnull align 8 dereferenceable(36) %0) #4 comdat align 2 {
  %2 = alloca ptr, align 8
  store ptr %0, ptr %2, align 8, !tbaa !377
  %3 = load ptr, ptr %2, align 8
  %4 = getelementptr inbounds nuw %"class.datalog::tr_infrastructure<datalog::table_traits>::base_ancestor", ptr %3, i32 0, i32 1
  %5 = load ptr, ptr %4, align 8, !tbaa !379
  ret ptr %5
}

; Function Attrs: mustprogress uwtable
define hidden noundef ptr @_ZN7datalog16relation_manager24mk_permutation_rename_fnERKNS_10table_baseEPKj(ptr noundef nonnull align 8 dereferenceable(200) %0, ptr noundef nonnull align 8 dereferenceable(36) %1, ptr noundef %2) #5 align 2 {
  %4 = alloca ptr, align 8
  %5 = alloca ptr, align 8
  %6 = alloca ptr, align 8
  %7 = alloca ptr, align 8
  store ptr %0, ptr %4, align 8, !tbaa !3
  store ptr %1, ptr %5, align 8, !tbaa !375
  store ptr %2, ptr %6, align 8, !tbaa !286
  call void @llvm.lifetime.start.p0(i64 8, ptr %7) #3
  %8 = load ptr, ptr %5, align 8, !tbaa !375
  %9 = call noundef nonnull align 8 dereferenceable(32) ptr @_ZNK7datalog17tr_infrastructureINS_12table_traitsEE13base_ancestor10get_pluginEv(ptr noundef nonnull align 8 dereferenceable(36) %8)
  %10 = load ptr, ptr %5, align 8, !tbaa !375
  %11 = load ptr, ptr %6, align 8, !tbaa !286
  %12 = load ptr, ptr %9, align 8, !tbaa !8
  %13 = getelementptr inbounds ptr, ptr %12, i64 14
  %14 = load ptr, ptr %13, align 8
  %15 = call noundef ptr %14(ptr noundef nonnull align 8 dereferenceable(32) %9, ptr noundef nonnull align 8 dereferenceable(36) %10, ptr noundef %11)
  store ptr %15, ptr %7, align 8, !tbaa !510
  %16 = load ptr, ptr %7, align 8, !tbaa !510
  %17 = icmp ne ptr %16, null
  br i1 %17, label %22, label %18

18:                                               ; preds = %3
  %19 = call noalias noundef ptr @_ZN6memory8allocateEm(i64 noundef 32)
  %20 = load ptr, ptr %5, align 8, !tbaa !375
  %21 = load ptr, ptr %6, align 8, !tbaa !286
  call void @_ZN7datalog17tr_infrastructureINS_12table_traitsEE29default_permutation_rename_fnC2ERKNS_10table_baseEPKj(ptr noundef nonnull align 8 dereferenceable(32) %19, ptr noundef nonnull align 8 dereferenceable(36) %20, ptr noundef %21)
  store ptr %19, ptr %7, align 8, !tbaa !510
  br label %22

22:                                               ; preds = %18, %3
  %23 = load ptr, ptr %7, align 8, !tbaa !510
  call void @llvm.lifetime.end.p0(i64 8, ptr %7) #3
  ret ptr %23
}